Certificate:
    Data:
        Version: 3 (0x2)
        Serial Number:
            cd:3e:0d:7f:83:94:79:8a:d5:ef
    Signature Algorithm: sha1WithRSAEncryption
        Issuer: C=DE, ST=Bayern, O=Joynr, CN=JoynrCA/emailAddress=joyn.support@bmw-carit.de
        Validity
            Not Before: Apr 14 14:58:14 2015 GMT
            Not After : Apr 13 14:58:14 2016 GMT
        Subject: C=DE, ST=Bayern, O=Joynr, CN=testclient2/emailAddress=joyn.support@bmw-carit.de
        Subject Public Key Info:
            Public Key Algorithm: rsaEncryption
                Public-Key: (4096 bit)
                Modulus:
                    00:be:fd:76:f1:73:b4:78:df:be:41:d7:2a:a2:db:
                    f1:21:b0:c3:22:6d:07:80:f1:79:bc:22:e0:21:56:
                    39:23:15:8b:a3:fc:f3:0b:e7:82:bb:18:63:d2:68:
                    69:af:d0:7b:ef:79:46:aa:4e:d9:8d:ff:c7:f9:12:
                    76:2a:b2:f5:e8:d8:52:89:6d:be:40:87:a3:a3:8a:
                    42:88:62:91:80:f5:40:48:70:a4:10:3e:44:5c:06:
                    ae:29:3c:7c:22:9b:0d:09:14:df:b7:51:29:b9:a8:
                    b9:ea:e3:e4:06:2b:ad:0c:0a:35:98:2d:69:6c:c8:
                    f6:51:f8:04:92:d4:65:cb:2f:70:15:b9:ea:9c:83:
                    77:d6:52:56:02:fe:43:3a:29:5c:cd:9e:c9:a8:83:
                    bb:e4:31:98:98:37:0a:97:25:1a:57:61:d1:d1:58:
                    b7:12:89:6d:03:e3:cb:80:60:2b:ff:86:26:75:34:
                    4d:dd:a2:f7:c4:87:e8:7b:5e:25:ca:76:c7:2b:08:
                    78:44:a3:3e:95:87:4b:b4:4a:85:5b:6c:d4:08:27:
                    db:65:4c:0e:dc:a0:a5:0b:de:2d:b1:ee:2a:6d:10:
                    57:84:b9:02:80:2c:51:b6:af:65:04:89:25:cb:0a:
                    70:14:cf:ad:b8:19:35:6a:0e:f6:11:51:29:0e:d9:
                    d6:88:7a:ef:09:e5:16:9d:f2:93:48:77:a6:23:1a:
                    76:da:ce:25:67:94:59:87:cd:2f:e9:20:33:8c:76:
                    16:06:5f:e3:f7:3d:20:70:96:f4:9d:63:cd:2d:62:
                    82:f7:42:33:10:48:ee:06:28:09:11:ec:72:89:f8:
                    d1:b7:9b:41:73:40:71:4e:48:52:30:20:e8:81:d0:
                    f2:6e:03:2f:e8:40:5b:9d:f3:14:4d:cd:98:f4:9f:
                    e3:ec:72:22:94:72:02:c8:16:f9:77:2d:6e:30:29:
                    ac:61:eb:a8:58:6e:ca:99:85:97:a4:c7:2e:ac:95:
                    c6:15:0c:08:27:ec:57:c5:82:56:c1:22:a7:49:30:
                    f4:f3:6c:18:62:35:07:ae:1c:11:86:23:de:21:4b:
                    93:74:c0:ab:84:c2:f3:0d:d9:55:5a:60:c7:27:da:
                    17:73:14:10:95:62:ce:83:a0:be:b7:6f:a7:70:31:
                    22:4b:04:b7:15:60:bb:31:ee:b6:cc:ee:ff:60:d0:
                    33:23:55:35:e7:b8:32:69:7a:10:e4:ea:95:64:df:
                    c0:66:77:75:36:e3:c2:16:21:20:f5:10:9f:2b:09:
                    78:4a:d3:8e:c8:ab:17:e4:3e:14:e8:f3:e0:13:31:
                    99:84:80:92:6c:d6:32:da:a3:1b:71:04:8e:c7:59:
                    07:94:81
                Exponent: 65537 (0x10001)
        X509v3 extensions:
            X509v3 Basic Constraints: 
                CA:FALSE
            Netscape Comment: 
                OpenSSL Generated Certificate
            X509v3 Subject Key Identifier: 
                EB:16:C6:8A:78:A7:86:82:5D:99:2E:77:A7:4F:D7:06:A0:7C:A8:FF
            X509v3 Authority Key Identifier: 
                keyid:EE:E4:E2:DE:F1:53:0D:F1:1F:E4:D1:0B:9D:26:BE:61:D1:69:40:BC

            X509v3 Key Usage: 
                Digital Signature, Non Repudiation, Key Encipherment
    Signature Algorithm: sha1WithRSAEncryption
         06:81:c1:4a:0b:0f:53:2a:f2:61:82:44:fd:5d:32:b2:51:28:
         24:1d:bf:a7:f8:8d:47:7d:93:b4:c5:1e:04:95:f9:eb:19:46:
         bc:40:4e:99:29:30:e0:e3:fa:a8:4d:b1:f6:20:34:f1:67:4b:
         03:36:32:3a:bc:3b:ca:43:d2:3c:a0:f3:91:04:09:2c:5d:5b:
         05:1b:cf:f8:30:a3:e6:3a:2a:5c:51:9b:fb:53:bd:f4:fa:e4:
         09:c1:96:4b:3d:48:26:08:77:3f:b2:7f:2d:04:8d:2d:c6:2c:
         86:6c:6c:24:ba:ca:6b:d7:66:26:34:df:c9:87:96:ad:2a:72:
         34:2f:ae:b4:a4:a8:b8:08:e8:5f:3c:a3:88:18:fe:38:18:8c:
         9c:57:fd:54:57:da:02:0e:99:15:90:32:11:76:c2:d1:ea:ee:
         4d:bc:77:c3:ac:21:f4:ec:cc:52:cf:9e:f8:22:3b:72:4c:bb:
         3c:61:af:20:a7:46:4d:d7:47:0a:de:bc:9a:43:1b:02:43:e2:
         bd:57:c5:41:94:5b:5c:11:cf:c6:c1:1e:43:3c:32:69:a1:e7:
         07:15:28:30:45:57:34:c1:ec:56:f4:15:ef:ed:d6:6d:4a:69:
         aa:6f:a3:56:c6:ba:aa:30:be:33:7c:98:20:f5:cb:fd:c4:ea:
         ef:ce:8a:26:4a:d6:dd:b9:ae:9e:fa:3b:59:30:a7:26:60:6a:
         aa:7f:d6:ad:b2:ee:9b:3e:a7:ef:16:62:77:94:2b:89:e0:b3:
         18:aa:de:6c:25:c2:9b:89:ae:60:13:ed:f2:ae:b2:ec:33:8e:
         6d:49:bc:5a:e0:1a:0a:d9:71:16:d9:c7:ea:f6:ca:6a:c1:50:
         f7:c0:94:1b:b8:a9:b8:3e:01:e7:fd:aa:d5:dd:b1:f9:5f:72:
         44:b3:75:9b:0d:9f:0c:e9:96:8d:fc:77:ed:28:ec:e9:f9:52:
         30:d9:47:28:2d:5c:be:f3:01:fa:31:0d:74:01:c7:c9:91:df:
         bc:45:19:7f:9f:14:39:cb:9d:6a:4d:6e:40:9f:68:0e:1e:7d:
         5e:8f:a9:fb:5a:69:f8:0b:b6:fe:ea:12:df:f6:20:e1:04:26:
         ec:d9:e6:bb:eb:b4:ab:b0:fa:46:ef:0c:dc:89:af:8a:9a:2f:
         23:73:b1:ce:2a:27:30:16:8e:ca:d6:95:92:8f:2a:24:5d:71:
         47:bd:b4:ae:d7:55:8d:27:7e:9f:af:6a:10:62:7d:16:fc:17:
         91:8b:42:d2:84:f9:f9:16:5b:2a:ff:f6:d7:38:df:b5:7d:75:
         20:99:d9:ab:97:16:f0:e8:07:b6:fc:16:ba:5d:ea:69:0c:cb:
         1e:16:c0:e5:2f:d3:24:fa
-----BEGIN CERTIFICATE-----
MIIF5zCCA8+gAwIBAgILAM0+DX+DlHmK1e8wDQYJKoZIhvcNAQEFBQAwajELMAkG
A1UEBhMCREUxDzANBgNVBAgMBkJheWVybjEOMAwGA1UECgwFSm95bnIxEDAOBgNV
BAMMB0pveW5yQ0ExKDAmBgkqhkiG9w0BCQEWGWpveW4uc3VwcG9ydEBibXctY2Fy
aXQuZGUwHhcNMTUwNDE0MTQ1ODE0WhcNMTYwNDEzMTQ1ODE0WjBuMQswCQYDVQQG
EwJERTEPMA0GA1UECAwGQmF5ZXJuMQ4wDAYDVQQKDAVKb3lucjEUMBIGA1UEAwwL
dGVzdGNsaWVudDIxKDAmBgkqhkiG9w0BCQEWGWpveW4uc3VwcG9ydEBibXctY2Fy
aXQuZGUwggIiMA0GCSqGSIb3DQEBAQUAA4ICDwAwggIKAoICAQC+/Xbxc7R4375B
1yqi2/EhsMMibQeA8Xm8IuAhVjkjFYuj/PML54K7GGPSaGmv0HvveUaqTtmN/8f5
EnYqsvXo2FKJbb5Ah6OjikKIYpGA9UBIcKQQPkRcBq4pPHwimw0JFN+3USm5qLnq
4+QGK60MCjWYLWlsyPZR+ASS1GXLL3AVueqcg3fWUlYC/kM6KVzNnsmog7vkMZiY
NwqXJRpXYdHRWLcSiW0D48uAYCv/hiZ1NE3dovfEh+h7XiXKdscrCHhEoz6Vh0u0
SoVbbNQIJ9tlTA7coKUL3i2x7iptEFeEuQKALFG2r2UEiSXLCnAUz624GTVqDvYR
USkO2daIeu8J5Rad8pNId6YjGnbaziVnlFmHzS/pIDOMdhYGX+P3PSBwlvSdY80t
YoL3QjMQSO4GKAkR7HKJ+NG3m0FzQHFOSFIwIOiB0PJuAy/oQFud8xRNzZj0n+Ps
ciKUcgLIFvl3LW4wKaxh66hYbsqZhZekxy6slcYVDAgn7FfFglbBIqdJMPTzbBhi
NQeuHBGGI94hS5N0wKuEwvMN2VVaYMcn2hdzFBCVYs6DoL63b6dwMSJLBLcVYLsx
7rbM7v9g0DMjVTXnuDJpehDk6pVk38Bmd3U248IWISD1EJ8rCXhK047IqxfkPhTo
8+ATMZmEgJJs1jLaoxtxBI7HWQeUgQIDAQABo4GJMIGGMAkGA1UdEwQCMAAwLAYJ
YIZIAYb4QgENBB8WHU9wZW5TU0wgR2VuZXJhdGVkIENlcnRpZmljYXRlMB0GA1Ud
DgQWBBTrFsaKeKeGgl2ZLnenT9cGoHyo/zAfBgNVHSMEGDAWgBTu5OLe8VMN8R/k
0QudJr5h0WlAvDALBgNVHQ8EBAMCBeAwDQYJKoZIhvcNAQEFBQADggIBAAaBwUoL
D1Mq8mGCRP1dMrJRKCQdv6f4jUd9k7TFHgSV+esZRrxATpkpMODj+qhNsfYgNPFn
SwM2Mjq8O8pD0jyg85EECSxdWwUbz/gwo+Y6KlxRm/tTvfT65AnBlks9SCYIdz+y
fy0EjS3GLIZsbCS6ymvXZiY038mHlq0qcjQvrrSkqLgI6F88o4gY/jgYjJxX/VRX
2gIOmRWQMhF2wtHq7k28d8OsIfTszFLPnvgiO3JMuzxhryCnRk3XRwrevJpDGwJD
4r1XxUGUW1wRz8bBHkM8Mmmh5wcVKDBFVzTB7Fb0Fe/t1m1Kaapvo1bGuqowvjN8
mCD1y/3E6u/OiiZK1t25rp76O1kwpyZgaqp/1q2y7ps+p+8WYneUK4ngsxiq3mwl
wpuJrmAT7fKusuwzjm1JvFrgGgrZcRbZx+r2ymrBUPfAlBu4qbg+Aef9qtXdsflf
ckSzdZsNnwzplo38d+0o7On5UjDZRygtXL7zAfoxDXQBx8mR37xFGX+fFDnLnWpN
bkCfaA4efV6PqftaafgLtv7qEt/2IOEEJuzZ5rvrtKuw+kbvDNyJr4qaLyNzsc4q
JzAWjsrWlZKPKiRdcUe9tK7XVY0nfp+vahBifRb8F5GLQtKE+fkWWyr/9tc437V9
dSCZ2auXFvDoB7b8Frpd6mkMyx4WwOUv0yT6
-----END CERTIFICATE-----
-----BEGIN PRIVATE KEY-----
MIIJQgIBADANBgkqhkiG9w0BAQEFAASCCSwwggkoAgEAAoICAQC+/Xbxc7R4375B
1yqi2/EhsMMibQeA8Xm8IuAhVjkjFYuj/PML54K7GGPSaGmv0HvveUaqTtmN/8f5
EnYqsvXo2FKJbb5Ah6OjikKIYpGA9UBIcKQQPkRcBq4pPHwimw0JFN+3USm5qLnq
4+QGK60MCjWYLWlsyPZR+ASS1GXLL3AVueqcg3fWUlYC/kM6KVzNnsmog7vkMZiY
NwqXJRpXYdHRWLcSiW0D48uAYCv/hiZ1NE3dovfEh+h7XiXKdscrCHhEoz6Vh0u0
SoVbbNQIJ9tlTA7coKUL3i2x7iptEFeEuQKALFG2r2UEiSXLCnAUz624GTVqDvYR
USkO2daIeu8J5Rad8pNId6YjGnbaziVnlFmHzS/pIDOMdhYGX+P3PSBwlvSdY80t
YoL3QjMQSO4GKAkR7HKJ+NG3m0FzQHFOSFIwIOiB0PJuAy/oQFud8xRNzZj0n+Ps
ciKUcgLIFvl3LW4wKaxh66hYbsqZhZekxy6slcYVDAgn7FfFglbBIqdJMPTzbBhi
NQeuHBGGI94hS5N0wKuEwvMN2VVaYMcn2hdzFBCVYs6DoL63b6dwMSJLBLcVYLsx
7rbM7v9g0DMjVTXnuDJpehDk6pVk38Bmd3U248IWISD1EJ8rCXhK047IqxfkPhTo
8+ATMZmEgJJs1jLaoxtxBI7HWQeUgQIDAQABAoICAFemwXisTk4O+SUEV4fogrCg
i913xjLSH7lNFCmYhZ5pW+3Fv9FdzWyKE/3Td3V9q/NKaDju+P8nPSI868hK23qi
FLcHi4HX/iym3kPzYK2bYIYeU900hnDpi/JW1O2Y1RGu58Ec2ZZgLfrz3YlLcB6P
bOtLJBAN5qXVulucaJ8oRTtjWJ295DiTDvBOupGtu+6OCiRxWMCwVkS9NfoJyB4E
QaPfIB28vjBD0fg3qtmZOnsdpwKpsSYb7YD4w0U4380LFQ8DEEzVi9PRQ4Si3Ghl
ylWh40wz2aspqzT2hbgKAPBjbBdgv5ukwSqkupiFUMzsRuCviQkElr95zOsI5GBw
r/e0CHVCUPYnaoQVaYQK1P2i0mJVDho02b9VwK031gN3k0z61D6+HSIylM/2Yy/r
o89mvkJAWOZ5SBFHCCu7Us0XP/WltTK5otFRl2N72ZxDRxFGWRmUrvLdKpYMm6Es
FfLYLwXnIGGfHbPVtIjZCTvZ41F3zbjmGe+VHmkR3bUz9vqqb1+By4wQBMCm/ZxX
BT9sSgxcGnDGXuKvoUROwdlsEvuAAHsv5bQYksjY8eRVvAgPb6eOzCYZdTv1mfw2
VOJjowwu9C0pVhmiNCqZ+mC44HNBd6Dy/i/jRWLBFCS54sRW4XyEnH/xgz01Suta
E/Pd8ot+kmJyIyQ2MaDBAoIBAQDxqUgZYF5rBxghDyeeZV362Id0BWWT5KJo+qAR
tQ1q7czau/BsaPBsRGMsC7IopZS4itW3vvPQnQZ8L+vhnGMT/5x38DWACmEaYWvG
j5HPkOch7s5MHFQcC3wmXzXXEqUEfN5dly4qvmP11QjiNkuOpPrQdkCPJh4rIR3L
XZUtVMeWt6WI1+kOeloiCEdrMlp5sPMFJtHxS+dCCE1hLzUat8O4EUTE57IvgbT6
LaX99oPjFKZRKQix+Z/NSW529+pnSClBbSta5wx/yJ7W9KlvcrD+gj4e+z/QlTPa
I1AEzmcBvZhufUNGfrec1UvoL0MUXX1MvWIxlM1e6qpTeWupAoIBAQDKUoMtPmDe
80AbWBhhuon0peSlwSoeZOBmR0w3+5eoX41eMJwiQxOJKrw9RDjOuha4rLPcG4AP
8TP4klnoogSguTi6qTZoSwuslhuFXjPoTzHIjAxb3xJMZapERxmZ18Di2M1tw1zP
5rmxoxxQpZQCYvuC4tlFEEJKs6IEDinlIEiapqGCHiocsyH6der6hyaEuI+kVgp8
uFtnrMDxC+wX4ku2z1yuEB4SNVL3xpoQdUWtvqzvwCPDDvvSMOIBvKpI3w39XqIU
uO4696c3N1Gupn6oBCNnRT8I4MbpYDxM8a1uUnnbB6HKuyLpteMj7ew7Me59qr14
exj3Bd1lPikZAoIBAEwBNc/lY0y+GnSrU4aZ0wkF+PQgjmYJTps92AI5s1KiH//b
hC5UgulKSPadZxcpnLC92aHEyOIfwN5mJAX9LZwolImUXv86RHgLk94LYYyqwkcF
2JRPhJSdeBqJb2GJV6UlsLo2xipjXwT+T6D1+qWOdeQCjSN4lZxy+e/wKu7q7ysT
71gur/oBuT9i4zNvzszfPk+sefMuMDmwasXaFxWkHkZSCBL13DDc1pKosMBDPA+7
euOjyDxRilUCd1+rcWmyZGdTcoNQj7nQ20Q4BuIqbEhfpjIQS23Kv1goKw6X7AW8
H6kAdJxDVnRZEVqhIrPRA4uTNMLrTfxASfmfAqECggEAeQ2dhviHpV4NwU6YaADg
ggywHazRspXQ3eFS7TwPpaJmRzD2ell/2tZDArVK+AXHin9qrguWN/OtkNCgEty9
wBySoLyV3Rjpxz2ZAdc3X4vi0YdZ7a4umJ9LnMadvrqkohXt8/qsEYiPGoXpbydi
w3rN2aY5MWVlBKUuDxcaYglK551DjULXF4zmi6D6EyPCHC8BYuZIKA92QTXPy2nC
vRedDahMX6ktFN/q4G1nyOkh467uchSYUSEp8r1kvH1RtYAgMrTobVWo1IdQ+WyT
5tefeI/hTuzTplA3M3NtIOyJRDT8y9xpJY+KeCNn4Bt++HwLog0CiI++hC5yJR1o
IQKCAQEAhI/qdQ7D9/L1MQHpyFe39XUVMHs7dLkhWNqR+0PvxlaV+P6w6lOixj5K
Mz6NNqfszRCJd9KbKRoWdv/kdQX0tFh8jgvWMtOs9fa9SaXFCTRIgnx33Fss5PSR
9dZJRw4vrZHZmMmUyY+A4L9cTmsZ8LMqz0pmA5ox/RBt3EhK0xPT1fMKQqOyIkPQ
jMBfbklJEXJQbsd+elxPknORFr7WtokDvZYhvzs88AdeBqOeeQfXJyltESxE9Ega
0ieWCtM8Kssm2oHdl/gJ5VP0Jo1WfgED8sTU819j0c33F1svATtAvG53VV0865KH
XmY3sku3FGpFC1brOboWTFI6Ktl0bQ==
-----END PRIVATE KEY-----
