Certificate:
    Data:
        Version: 3 (0x2)
        Serial Number:
            be:64:0a:3a:34:e2:ff:86:64:c3
    Signature Algorithm: sha1WithRSAEncryption
        Issuer: C=DE, ST=Bayern, O=Joynr, CN=JoynrCA/emailAddress=joyn.support@bmw-carit.de
        Validity
            Not Before: Apr 14 11:03:31 2014 GMT
            Not After : Apr 14 11:03:31 2015 GMT
        Subject: C=DE, ST=Bayern, O=Joynr, CN=testclient/emailAddress=joyn.support@bmw-carit.de
        Subject Public Key Info:
            Public Key Algorithm: rsaEncryption
                Public-Key: (4096 bit)
                Modulus:
                    00:b5:ac:4f:fd:81:50:e1:7b:34:c4:0f:73:2f:c8:
                    f2:d3:82:1f:0f:e2:92:b0:7a:77:f3:1f:b0:56:ad:
                    56:88:d2:9f:ca:75:9d:5c:ff:52:1c:91:e7:ea:c5:
                    73:d6:a4:d1:89:da:9b:f2:2f:b7:a1:2a:71:8b:e1:
                    94:32:67:b5:61:28:c4:29:11:0c:8a:3c:2c:cf:5f:
                    c1:8e:66:cb:a7:2c:be:42:e8:ef:6c:4c:72:b0:f9:
                    1b:94:1d:03:5c:c9:49:29:56:07:95:df:41:3a:60:
                    ea:b9:3f:e0:00:35:a9:16:8c:ca:5e:ea:06:db:84:
                    e4:08:c9:bb:7b:a7:ac:8c:60:58:4f:06:84:ed:71:
                    ea:be:91:07:28:60:94:87:e6:d6:6f:30:a7:ec:be:
                    68:c9:6e:ab:00:70:e2:70:9e:2d:f8:9a:ed:ae:fd:
                    7b:7b:e9:97:f0:74:a9:2c:58:98:76:fa:5b:5d:5d:
                    42:ed:c8:1b:38:90:c4:40:d7:34:ac:24:0f:00:86:
                    4e:c9:27:75:5d:f7:ca:e1:31:97:bd:cf:f8:db:7a:
                    7d:d0:22:9d:8c:a3:40:d5:e8:0e:19:49:ab:24:5b:
                    b3:66:05:4f:75:a3:62:09:ee:80:eb:62:47:01:0d:
                    3d:2f:a6:5c:56:fe:95:9c:1c:17:bd:8b:55:15:48:
                    7c:c4:77:d6:8d:5c:37:a9:27:00:1f:d1:3c:7f:f9:
                    0b:45:d7:b8:9c:b9:68:9a:e8:e4:98:bc:93:ce:06:
                    95:37:e4:af:59:56:8b:67:15:e4:53:e1:d5:9e:f8:
                    be:b8:6d:58:8c:dc:c1:92:76:3f:65:a6:40:d6:d7:
                    87:3e:19:45:4e:79:3b:6b:11:f7:bd:99:99:16:8c:
                    d6:6b:e6:59:85:23:cf:ba:79:18:1b:1c:1f:7c:19:
                    9c:72:ac:dc:0a:a3:ee:27:92:7d:17:4b:b0:ce:a8:
                    40:99:bb:68:04:9f:45:6d:cc:ef:0d:23:0b:b9:ea:
                    18:20:c9:86:cf:45:ab:df:0b:2b:0a:a4:06:7d:d4:
                    04:0c:88:6b:75:4d:a7:97:d5:d3:cc:ed:6a:31:5e:
                    48:41:91:fb:aa:e9:11:88:c9:8a:3f:d9:e4:ff:60:
                    5e:47:ed:7e:4e:87:2f:88:59:6c:a7:a1:94:c6:dd:
                    76:aa:e1:51:9a:4a:52:ff:a5:3a:f5:a8:27:cf:76:
                    2a:e4:ba:12:df:85:e2:70:bb:0a:5c:ce:5e:46:e9:
                    03:fb:0e:ce:57:21:ee:bd:62:25:b4:42:02:2f:53:
                    4f:40:e9:25:06:3b:59:14:27:ab:70:6f:6e:ed:a9:
                    67:9b:80:4d:16:3a:e9:ab:dc:18:87:0e:f1:0b:bc:
                    0d:6e:8f
                Exponent: 65537 (0x10001)
        X509v3 extensions:
            X509v3 Basic Constraints: 
                CA:FALSE
            Netscape Comment: 
                OpenSSL Generated Certificate
            X509v3 Subject Key Identifier: 
                6C:F9:C8:A4:E3:4D:D5:AC:81:E2:96:E5:10:B7:84:BC:80:94:20:B7
            X509v3 Authority Key Identifier: 
                keyid:EE:E4:E2:DE:F1:53:0D:F1:1F:E4:D1:0B:9D:26:BE:61:D1:69:40:BC

            X509v3 Key Usage: 
                Digital Signature, Non Repudiation, Key Encipherment
    Signature Algorithm: sha1WithRSAEncryption
         20:78:9e:7c:f8:c0:5c:a4:9c:7c:48:8b:f9:55:01:b9:c5:c3:
         38:51:3f:3f:85:68:69:a5:52:ef:8c:65:af:78:9e:1b:e0:c8:
         4d:aa:c6:9e:ac:9f:2a:f5:e4:2e:11:0b:7d:22:71:f0:d4:62:
         f0:ab:e4:6a:c8:c2:30:ff:fe:18:2a:a5:bf:15:9d:bc:f1:f5:
         3d:78:a3:83:e7:27:db:f2:b4:50:53:c0:80:b2:0a:fb:a7:e9:
         a5:e5:e0:a5:20:a9:ab:b0:49:43:96:29:b4:b9:5c:22:49:f4:
         5a:c3:97:23:ba:bc:99:93:2f:ad:b1:f4:74:aa:09:e6:5d:4e:
         97:b1:9a:74:5c:cd:c4:c3:ee:7c:7c:24:b6:59:8c:6a:fb:e5:
         50:20:06:73:59:16:5d:a8:52:db:3f:e4:93:65:82:1e:b3:65:
         1f:e3:67:eb:8b:a1:8d:4a:4b:11:8b:ba:4c:1e:50:76:c6:80:
         44:c1:a4:8e:b9:fc:a1:98:ea:89:fa:e0:e4:ba:c2:47:88:6e:
         b4:a9:e4:88:6c:66:5d:eb:04:d3:fb:80:e7:52:90:c9:1b:4a:
         6d:d9:64:1c:83:73:4e:e3:df:12:2d:c1:f9:ea:63:44:4c:f8:
         b5:4e:7f:d4:ec:07:8d:87:33:74:23:6d:20:dc:06:73:3f:52:
         67:8e:79:6f:7c:9b:eb:a6:96:a0:98:6e:d4:2f:04:58:87:a1:
         c6:17:f5:78:1e:ce:6a:03:ee:79:af:c9:35:07:85:ed:5b:8e:
         30:09:a6:bf:43:5d:0d:f6:fd:1e:e2:e8:cc:8d:b7:47:07:0c:
         2b:4f:b5:3e:97:1c:15:ac:a0:d3:43:3a:7f:68:dc:8a:8f:2e:
         86:e9:73:b4:a9:5e:a3:76:5e:d1:81:3c:0a:5a:2e:a6:ad:08:
         ef:5c:0b:bc:0d:16:5b:df:f6:ff:49:79:10:ba:09:cd:d0:dd:
         4d:44:29:bb:f4:d2:c7:5e:80:80:97:c9:7e:f7:0b:d2:60:fb:
         8a:3a:87:a5:fe:be:02:19:d4:79:fe:3d:8f:00:25:4f:54:60:
         ba:33:62:6b:43:75:84:f3:16:2b:bb:04:3b:48:b6:05:f3:71:
         26:29:8f:d6:28:38:67:9b:bc:83:25:e5:67:23:6a:52:fb:da:
         6c:e0:dd:08:9e:f7:0c:43:c6:7f:da:78:41:c1:12:98:4d:b4:
         7b:c1:91:a6:05:d7:a1:7d:b7:a3:a2:ec:dd:96:95:de:a3:b8:
         cc:d9:66:14:b4:fc:37:d7:f5:be:97:5c:c0:91:83:23:fb:07:
         f1:70:4d:c5:28:d6:48:1a:65:79:ae:bd:d9:56:bb:5a:89:5d:
         83:b1:fc:ef:cd:b3:93:b4
-----BEGIN CERTIFICATE-----
MIIF5jCCA86gAwIBAgILAL5kCjo04v+GZMMwDQYJKoZIhvcNAQEFBQAwajELMAkG
A1UEBhMCREUxDzANBgNVBAgMBkJheWVybjEOMAwGA1UECgwFSm95bnIxEDAOBgNV
BAMMB0pveW5yQ0ExKDAmBgkqhkiG9w0BCQEWGWpveW4uc3VwcG9ydEBibXctY2Fy
aXQuZGUwHhcNMTQwNDE0MTEwMzMxWhcNMTUwNDE0MTEwMzMxWjBtMQswCQYDVQQG
EwJERTEPMA0GA1UECAwGQmF5ZXJuMQ4wDAYDVQQKDAVKb3lucjETMBEGA1UEAwwK
dGVzdGNsaWVudDEoMCYGCSqGSIb3DQEJARYZam95bi5zdXBwb3J0QGJtdy1jYXJp
dC5kZTCCAiIwDQYJKoZIhvcNAQEBBQADggIPADCCAgoCggIBALWsT/2BUOF7NMQP
cy/I8tOCHw/ikrB6d/MfsFatVojSn8p1nVz/UhyR5+rFc9ak0Ynam/Ivt6EqcYvh
lDJntWEoxCkRDIo8LM9fwY5my6csvkLo72xMcrD5G5QdA1zJSSlWB5XfQTpg6rk/
4AA1qRaMyl7qBtuE5AjJu3unrIxgWE8GhO1x6r6RByhglIfm1m8wp+y+aMluqwBw
4nCeLfia7a79e3vpl/B0qSxYmHb6W11dQu3IGziQxEDXNKwkDwCGTskndV33yuEx
l73P+Nt6fdAinYyjQNXoDhlJqyRbs2YFT3WjYgnugOtiRwENPS+mXFb+lZwcF72L
VRVIfMR31o1cN6knAB/RPH/5C0XXuJy5aJro5Ji8k84GlTfkr1lWi2cV5FPh1Z74
vrhtWIzcwZJ2P2WmQNbXhz4ZRU55O2sR972ZmRaM1mvmWYUjz7p5GBscH3wZnHKs
3Aqj7ieSfRdLsM6oQJm7aASfRW3M7w0jC7nqGCDJhs9Fq98LKwqkBn3UBAyIa3VN
p5fV08ztajFeSEGR+6rpEYjJij/Z5P9gXkftfk6HL4hZbKehlMbddqrhUZpKUv+l
OvWoJ892KuS6Et+F4nC7ClzOXkbpA/sOzlch7r1iJbRCAi9TT0DpJQY7WRQnq3Bv
bu2pZ5uATRY66avcGIcO8Qu8DW6PAgMBAAGjgYkwgYYwCQYDVR0TBAIwADAsBglg
hkgBhvhCAQ0EHxYdT3BlblNTTCBHZW5lcmF0ZWQgQ2VydGlmaWNhdGUwHQYDVR0O
BBYEFGz5yKTjTdWsgeKW5RC3hLyAlCC3MB8GA1UdIwQYMBaAFO7k4t7xUw3xH+TR
C50mvmHRaUC8MAsGA1UdDwQEAwIF4DANBgkqhkiG9w0BAQUFAAOCAgEAIHiefPjA
XKScfEiL+VUBucXDOFE/P4VoaaVS74xlr3ieG+DITarGnqyfKvXkLhELfSJx8NRi
8KvkasjCMP/+GCqlvxWdvPH1PXijg+cn2/K0UFPAgLIK+6fppeXgpSCpq7BJQ5Yp
tLlcIkn0WsOXI7q8mZMvrbH0dKoJ5l1Ol7GadFzNxMPufHwktlmMavvlUCAGc1kW
XahS2z/kk2WCHrNlH+Nn64uhjUpLEYu6TB5QdsaARMGkjrn8oZjqifrg5LrCR4hu
tKnkiGxmXesE0/uA51KQyRtKbdlkHINzTuPfEi3B+epjREz4tU5/1OwHjYczdCNt
INwGcz9SZ455b3yb66aWoJhu1C8EWIehxhf1eB7OagPuea/JNQeF7VuOMAmmv0Nd
Dfb9HuLozI23RwcMK0+1PpccFayg00M6f2jcio8uhulztKleo3Ze0YE8Cloupq0I
71wLvA0WW9/2/0l5ELoJzdDdTUQpu/TSx16AgJfJfvcL0mD7ijqHpf6+AhnUef49
jwAlT1RgujNia0N1hPMWK7sEO0i2BfNxJimP1ig4Z5u8gyXlZyNqUvvabODdCJ73
DEPGf9p4QcESmE20e8GRpgXXoX23o6Ls3ZaV3qO4zNlmFLT8N9f1vpdcwJGDI/sH
8XBNxSjWSBplea692Va7Woldg7H8782zk7Q=
-----END CERTIFICATE-----
-----BEGIN PRIVATE KEY-----
MIIJQwIBADANBgkqhkiG9w0BAQEFAASCCS0wggkpAgEAAoICAQC1rE/9gVDhezTE
D3MvyPLTgh8P4pKwenfzH7BWrVaI0p/KdZ1c/1IckefqxXPWpNGJ2pvyL7ehKnGL
4ZQyZ7VhKMQpEQyKPCzPX8GOZsunLL5C6O9sTHKw+RuUHQNcyUkpVgeV30E6YOq5
P+AANakWjMpe6gbbhOQIybt7p6yMYFhPBoTtceq+kQcoYJSH5tZvMKfsvmjJbqsA
cOJwni34mu2u/Xt76ZfwdKksWJh2+ltdXULtyBs4kMRA1zSsJA8Ahk7JJ3Vd98rh
MZe9z/jben3QIp2Mo0DV6A4ZSaskW7NmBU91o2IJ7oDrYkcBDT0vplxW/pWcHBe9
i1UVSHzEd9aNXDepJwAf0Tx/+QtF17icuWia6OSYvJPOBpU35K9ZVotnFeRT4dWe
+L64bViM3MGSdj9lpkDW14c+GUVOeTtrEfe9mZkWjNZr5lmFI8+6eRgbHB98GZxy
rNwKo+4nkn0XS7DOqECZu2gEn0VtzO8NIwu56hggyYbPRavfCysKpAZ91AQMiGt1
TaeX1dPM7WoxXkhBkfuq6RGIyYo/2eT/YF5H7X5Ohy+IWWynoZTG3Xaq4VGaSlL/
pTr1qCfPdirkuhLfheJwuwpczl5G6QP7Ds5XIe69YiW0QgIvU09A6SUGO1kUJ6tw
b27tqWebgE0WOumr3BiHDvELvA1ujwIDAQABAoICACRtgbiONn6P6tupUWpye6ZH
gBz6THmQhP6+CujGZwSWXy4EeWJNW9SYuQ0NPJX8hHuE1yIvyT1KumvW9pVI0EjE
GNk3LvGE8WM/ixsXp5xEz32xIVjw10p/GLWRP7xaLA5azriRhI3FIyu0ECFaoSYB
Yw63FFruAZ91e99mlqWrJ+non7zQy8YcZHgHLaE2eybedb11zKMfSrCS8gSs4wDn
Z+NftmP5SdsQOV/IAAJTXwCQk7wEFNk5xfBOdqRRsqRjSebxv4nxBsAy5n9L9VVk
8VdLqZWqonSBzFnruKJYtNcvF2i6Mw1UworwMNaYJf2o+PkEoVElHOmHx6610zZn
aKUYr5NMdo4szMwPv61scPTEfmfbKXZ04zLUG2HYcAqhX6GDpSDqVWtMPhEt6EMW
KmS8NFF62WXfOejwQbUj6Eek+jGjCUpZgld8vc1zoRGi4iamidDq5zkviQE8Qg9I
bu2wTPtE1ESbED1DjPZJik/nO2k2TJ5IoMDNZw57Xo2qlFvY1b+N2IToagaxBGK5
XKFcTFeqB5li5N41yHdwjfrTEP4dl/ciNRSHOWTTj3wy0NWUq/8LvBu5jnk1pOcR
fUBrgcNuDlYOFmpeomePA6vW/UwfBFnpU4hPjrZ4wzieipDVOv/JcCwUzZkznhOE
vRrlk2W7DAF/r8U+RhTJAoIBAQDYgnDxkIABmUlNSRPwyPxESHwL5jNAWGsIwBYZ
3m7GJYGBNiLwpGFC4F2TYOKIgSDMDg83j1oCUQJ1WrpsIskqfaFA7ziuNJYOhs8V
Fmexpk7+Vn+gtYrvsZP/8rBUHu3fns3ekeklyuyGN/uEiCS7Pxc4kkirdH1CQxH+
AMK4sVYmHRypP7TngL+RnzCnY3H2+ke9DJOlRiEERaWsNSxqsid6ofHVbsIwbcdP
9FE9AeaBNSF2R/sBQfIySMpnUGOTRpAgbrDDOZATcQE2ncDzvkV6WYJ497LagzFW
w0pKn6G6cdidxFtQsUV2j7JfnxFwF6G+3szoaZszL+Pq3gl1AoIBAQDWzz2bFtOB
vptiNdXhpxQtGMpKSgoedb5riinm8YqRu1zNeiVcMXZhqgvjYdIncEA0hHfMQVJQ
cY8ixHaK+NfWL0YjrMVqqdjJBtTh1bmx2sUS2UQxl1fpfbJNaXHl7KaRiDyfbVXh
OW7NuhxRG0PWoPObRyc49D1nc46Puz4/8sJmEP7hrp0HId2OFBHzfOL754gNAgQt
6C5hviGsxv8dgaz12Zzbai3fQZL6WrSziy+kabzlheCrP3eCmtcS0z0V1BrEB0in
d/9eNHTqyNaBAVB16E/fDfi//BeYpU5H1HjyIT0WYs+zsqmUaiaOY9vZJLBgGdiI
st2GwOxSPZNzAoIBAQCStRDDHx8d9jhtXi9c4VPPES69AWeJGmCstTxEmyyEp7Vx
ULWsSjZ9knrV+riFtrn6iyxUgZaEK1B3JNtdmtSlLiuuTGsj4A4uGbsIlv38qqys
OwCQbXOPp8yZimFhHvQgqwLk5goNycsrx5Nu4rHBD6c0dis3wt99nuT6MJnBfKjb
eq6JINn8ZIlqq2vUgNYgfMdPms4RF8wXkPoKDp3iToXh2wp7jWmYV0rPKsZBiKAg
vVfHRk8XMxBicmB0UUyn5xCSaW7tWnv+MHyZ/ZtZjnyVw0FdprpSxsMP/5S/rBty
suINRZh6vSRMimJb2PV/9wNqyp4efjDkJndSFtJhAoIBABHS9GuwAzDa3g3SJcMp
l/T9/5sWdax9XKWTu1JcbIEXKOYr4nm56PbFo2LktQlsuQcijsY2DVx7b8MUxjlV
2KL/HTTMmzz0hvZ3SKbMkzH80ylzOcNbqYHIWkkuHLNVZaThxxX7forHtzf+32aj
eoeOp2gVCV4idg3lesjWYp3vyM2rT1ruoDz9RGMLq0mm7Ta1yYY6ypn8kAywOB8c
DAMoxW9I9UkHkHLcABQh/qh/Ph7IX1I0P6Y2B/agXoRDXug2x1nIuPCcdmYcuC7b
J2Fg+IowEqCRijhz9IlH/izbpoWA2I7I+C8S/htAi555Dr7/2lq/CkadgOAzlehl
D50CggEBAMKJL7BAiI7j+Fxpb8/CGx/GAaLQVpDY29Nk36afOfy04OKC66Gd2085
0HUgo91zK8QoiV2ThWCcllut7C00K8uOOW84ddFLwCYFe6a6uCNNTUDfo9Tssrm0
/WDvceb06YByxwfRos9YAdve7KUt5hbwtv52kcoGb1zbCCnPyqqvZAYP5GbzEYZU
SNpEJhw7Zphiq1XhbNA0n6FD4Qj2e3WXqJwnCdCii+/cT90nE89Cl33mqp6Ski/E
vQ/5XIoX5N5GsXijHJEvNqz1C0bMoIVI76VcoJAEX5x+n1FsxZ/45b21sJnqtz/x
zpnxASrPbJVJJ9rVr5xzC/ZCwfkJ1XY=
-----END PRIVATE KEY-----
